; Function Attrs: mustprogress nounwind uwtable
define void @_ZN6google8protobuf2io26CopyingOutputStreamAdaptor10FreeBufferEv(ptr nocapture noundef nonnull align 8 dereferenceable(48) %0) local_unnamed_addr #7 align 2 {
  %2 = getelementptr inbounds i8, ptr %0, i64 44
  store i32 0, ptr %2, align 4
  %3 = getelementptr inbounds i8, ptr %0, i64 32
  %4 = load ptr, ptr %3, align 8
  store ptr null, ptr %3, align 8
  %.not.i.i.i = icmp eq ptr %4, null
  br i1 %.not.i.i.i, label %_ZNSt10unique_ptrIA_hSt14default_deleteIS0_EE5resetEDn.exit, label %_ZNKSt14default_deleteIA_hEclIhEENSt9enable_ifIXsr14is_convertibleIPA_T_PS0_EE5valueEvE4typeEPS4_.exit.i.i.i

_ZNKSt14default_deleteIA_hEclIhEENSt9enable_ifIXsr14is_convertibleIPA_T_PS0_EE5valueEvE4typeEPS4_.exit.i.i.i: ; preds = %1
  tail call void @_ZdaPv(ptr noundef nonnull %4) #17
  br label %_ZNSt10unique_ptrIA_hSt14default_deleteIS0_EE5resetEDn.exit

_ZNSt10unique_ptrIA_hSt14default_deleteIS0_EE5resetEDn.exit: ; preds = %1, %_ZNKSt14default_deleteIA_hEclIhEENSt9enable_ifIXsr14is_convertibleIPA_T_PS0_EE5valueEvE4typeEPS4_.exit.i.i.i
  ret void
}